; Function Attrs: mustprogress nounwind uwtable
define internal fastcc noundef zeroext i1 @_ZN12_GLOBAL__N_126AArch64InstructionSelector19selectConcatVectorsERN4llvm12MachineInstrERNS1_19MachineRegisterInfoE(ptr noundef nonnull align 8 dereferenceable(1480) %0, ptr noundef nonnull align 8 dereferenceable(70) %1) unnamed_addr #0 align 2 {
  %3 = getelementptr inbounds nuw i8, ptr %1, i64 32
  %4 = load ptr, ptr %3, align 8
  %5 = getelementptr inbounds nuw i8, ptr %4, i64 4
  %6 = load i32, ptr %5, align 4
  %7 = getelementptr inbounds i8, ptr %4, i64 36
  %8 = load i32, ptr %7, align 4
  %9 = getelementptr inbounds i8, ptr %4, i64 68
  %10 = load i32, ptr %9, align 4
  %11 = getelementptr inbounds nuw i8, ptr %0, i64 128
  %.sroa.0.0.insert.ext = zext i32 %6 to i64
  %.sroa.0.0.insert.insert = or disjoint i64 %.sroa.0.0.insert.ext, 4294967296
  %12 = tail call fastcc noundef ptr @_ZNK12_GLOBAL__N_126AArch64InstructionSelector16emitVectorConcatESt8optionalIN4llvm8RegisterEES3_S3_RNS2_16MachineIRBuilderE(ptr noundef nonnull align 8 dereferenceable(1480) %0, i64 %.sroa.0.0.insert.insert, i32 %8, i32 %10, ptr noundef nonnull align 8 dereferenceable(88) %11)
  %.not = icmp ne ptr %12, null
  br i1 %.not, label %13, label %14

13:                                               ; preds = %2
  tail call void @_ZN4llvm12MachineInstr15eraseFromParentEv(ptr noundef nonnull align 8 dereferenceable(70) %1) #24
  br label %14

14:                                               ; preds = %2, %13
  ret i1 %.not
}